target datalayout = "e-m:e-p270:32:32-p271:32:32-p272:64:64-i64:64-i128:128-f80:128-n8:16:32:64-S128"
target triple = "x86_64-unknown-linux-gnu"

; Function Attrs: mustprogress nounwind uwtable
define linkonce_odr noundef i32 @_ZN3re2anENS_6Regexp10ParseFlagsES1_(i32 noundef %a, i32 noundef %b) #0 comdat {
entry:
  %a.addr = alloca i32, align 4
  %b.addr = alloca i32, align 4
  store i32 %a, ptr %a.addr, align 4
  store i32 %b, ptr %b.addr, align 4
  %0 = load i32, ptr %a.addr, align 4
  %1 = load i32, ptr %b.addr, align 4
  %and = and i32 %0, %1
  ret i32 %and
}

; Function Attrs: mustprogress uwtable
define void @_ZN3re216CharClassBuilder13AddRangeFlagsEiiNS_6Regexp10ParseFlagsE(ptr noundef nonnull align 8 dereferenceable(64) %this, i32 noundef %lo, i32 noundef %hi, i32 noundef %parse_flags) #1 align 2 {
entry:
  %this.addr = alloca ptr, align 8
  %lo.addr = alloca i32, align 4
  %hi.addr = alloca i32, align 4
  %parse_flags.addr = alloca i32, align 4
  %cutnl = alloca i8, align 1
  store ptr %this, ptr %this.addr, align 8
  store i32 %lo, ptr %lo.addr, align 4
  store i32 %hi, ptr %hi.addr, align 4
  store i32 %parse_flags, ptr %parse_flags.addr, align 4
  %this1 = load ptr, ptr %this.addr, align 8
  %0 = load i32, ptr %parse_flags.addr, align 4
  %call = call noundef i32 @_ZN3re2anENS_6Regexp10ParseFlagsES1_(i32 noundef %0, i32 noundef 4)
  %tobool = icmp ne i32 %call, 0
  br i1 %tobool, label %lor.rhs, label %lor.end

lor.rhs:                                          ; preds = %entry
  %1 = load i32, ptr %parse_flags.addr, align 4
  %call2 = call noundef i32 @_ZN3re2anENS_6Regexp10ParseFlagsES1_(i32 noundef %1, i32 noundef 2048)
  %tobool3 = icmp ne i32 %call2, 0
  br label %lor.end

lor.end:                                          ; preds = %lor.rhs, %entry
  %2 = phi i1 [ true, %entry ], [ %tobool3, %lor.rhs ]
  %frombool = zext i1 %2 to i8
  store i8 %frombool, ptr %cutnl, align 1
  %3 = load i8, ptr %cutnl, align 1
  %tobool4 = trunc i8 %3 to i1
  br i1 %tobool4, label %land.lhs.true, label %if.end12

land.lhs.true:                                    ; preds = %lor.end
  %4 = load i32, ptr %lo.addr, align 4
  %cmp = icmp sle i32 %4, 10
  br i1 %cmp, label %land.lhs.true5, label %if.end12

land.lhs.true5:                                   ; preds = %land.lhs.true
  %5 = load i32, ptr %hi.addr, align 4
  %cmp6 = icmp sle i32 10, %5
  br i1 %cmp6, label %if.then, label %if.end12

if.then:                                          ; preds = %land.lhs.true5
  %6 = load i32, ptr %lo.addr, align 4
  %cmp7 = icmp slt i32 %6, 10
  br i1 %cmp7, label %if.then8, label %if.end

if.then8:                                         ; preds = %if.then
  %7 = load i32, ptr %lo.addr, align 4
  %8 = load i32, ptr %parse_flags.addr, align 4
  call void @_ZN3re216CharClassBuilder13AddRangeFlagsEiiNS_6Regexp10ParseFlagsE(ptr noundef nonnull align 8 dereferenceable(64) %this1, i32 noundef %7, i32 noundef 9, i32 noundef %8)
  br label %if.end

if.end:                                           ; preds = %if.then8, %if.then
  %9 = load i32, ptr %hi.addr, align 4
  %cmp9 = icmp sgt i32 %9, 10
  br i1 %cmp9, label %if.then10, label %if.end11

if.then10:                                        ; preds = %if.end
  %10 = load i32, ptr %hi.addr, align 4
  %11 = load i32, ptr %parse_flags.addr, align 4
  call void @_ZN3re216CharClassBuilder13AddRangeFlagsEiiNS_6Regexp10ParseFlagsE(ptr noundef nonnull align 8 dereferenceable(64) %this1, i32 noundef 11, i32 noundef %10, i32 noundef %11)
  br label %if.end11

if.end11:                                         ; preds = %if.then10, %if.end
  br label %if.end17

if.end12:                                         ; preds = %land.lhs.true5, %land.lhs.true, %lor.end
  %12 = load i32, ptr %parse_flags.addr, align 4
  %call13 = call noundef i32 @_ZN3re2anENS_6Regexp10ParseFlagsES1_(i32 noundef %12, i32 noundef 1)
  %tobool14 = icmp ne i32 %call13, 0
  br i1 %tobool14, label %if.then15, label %if.else

if.then15:                                        ; preds = %if.end12
  %13 = load i32, ptr %lo.addr, align 4
  %14 = load i32, ptr %hi.addr, align 4
  call void @_ZN3re2L14AddFoldedRangeEPNS_16CharClassBuilderEiii(ptr noundef %this1, i32 noundef %13, i32 noundef %14, i32 noundef 0)
  br label %if.end17

if.else:                                          ; preds = %if.end12
  %15 = load i32, ptr %lo.addr, align 4
  %16 = load i32, ptr %hi.addr, align 4
  %call16 = call noundef zeroext i1 @_ZN3re216CharClassBuilder8AddRangeEii(ptr noundef nonnull align 8 dereferenceable(64) %this1, i32 noundef %15, i32 noundef %16)
  br label %if.end17

if.end17:                                         ; preds = %if.else, %if.then15, %if.end11
  ret void
}