; Function Attrs: mustprogress uwtable
define void @_ZN3re216CharClassBuilder13AddRangeFlagsEiiNS_6Regexp10ParseFlagsE(ptr noundef nonnull align 8 dereferenceable(64) %this, i32 noundef %lo, i32 noundef %hi, i32 noundef %parse_flags) local_unnamed_addr #8 align 2 {
entry:
  %0 = and i32 %parse_flags, 2052
  %1 = icmp ne i32 %0, 4
  %cmp = icmp slt i32 %lo, 11
  %or.cond = and i1 %cmp, %1
  %cmp6 = icmp sgt i32 %hi, 9
  %or.cond1 = and i1 %cmp6, %or.cond
  br i1 %or.cond1, label %if.then, label %if.end12

if.then:                                          ; preds = %entry
  %cmp7 = icmp slt i32 %lo, 10
  br i1 %cmp7, label %if.then8, label %if.end

if.then8:                                         ; preds = %if.then
  %and.i28 = and i32 %parse_flags, 1
  %tobool14.not.i = icmp eq i32 %and.i28, 0
  br i1 %tobool14.not.i, label %if.else.i, label %if.then15.i

if.then15.i:                                      ; preds = %if.then8
  tail call fastcc void @_ZN3re2L14AddFoldedRangeEPNS_16CharClassBuilderEiii(ptr noundef nonnull %this, i32 noundef %lo, i32 noundef 9, i32 noundef 0)
  br label %if.end

if.else.i:                                        ; preds = %if.then8
  %call16.i = tail call noundef zeroext i1 @_ZN3re216CharClassBuilder8AddRangeEii(ptr noundef nonnull align 8 dereferenceable(64) %this, i32 noundef %lo, i32 noundef 9)
  br label %if.end

if.end:                                           ; preds = %if.else.i, %if.then15.i, %if.then
  %cmp9 = icmp ugt i32 %hi, 10
  br i1 %cmp9, label %if.then10, label %if.end17

if.then10:                                        ; preds = %if.end
  %and.i29 = and i32 %parse_flags, 1
  %tobool14.not.i22 = icmp eq i32 %and.i29, 0
  br i1 %tobool14.not.i22, label %if.else.i24, label %if.then15.i23

if.then15.i23:                                    ; preds = %if.then10
  tail call fastcc void @_ZN3re2L14AddFoldedRangeEPNS_16CharClassBuilderEiii(ptr noundef nonnull %this, i32 noundef 11, i32 noundef %hi, i32 noundef 0)
  br label %if.end17

if.else.i24:                                      ; preds = %if.then10
  %call16.i25 = tail call noundef zeroext i1 @_ZN3re216CharClassBuilder8AddRangeEii(ptr noundef nonnull align 8 dereferenceable(64) %this, i32 noundef 11, i32 noundef %hi)
  br label %if.end17

if.end12:                                         ; preds = %entry
  %and.i27 = and i32 %parse_flags, 1
  %tobool14.not = icmp eq i32 %and.i27, 0
  br i1 %tobool14.not, label %if.else, label %if.then15

if.then15:                                        ; preds = %if.end12
  tail call fastcc void @_ZN3re2L14AddFoldedRangeEPNS_16CharClassBuilderEiii(ptr noundef nonnull %this, i32 noundef %lo, i32 noundef %hi, i32 noundef 0)
  br label %if.end17

if.else:                                          ; preds = %if.end12
  %call16 = tail call noundef zeroext i1 @_ZN3re216CharClassBuilder8AddRangeEii(ptr noundef nonnull align 8 dereferenceable(64) %this, i32 noundef %lo, i32 noundef %hi)
  br label %if.end17

if.end17:                                         ; preds = %if.else.i24, %if.then15.i23, %if.end, %if.else, %if.then15
  ret void
}